target datalayout = "e-m:e-p270:32:32-p271:32:32-p272:64:64-i64:64-i128:128-f80:128-n8:16:32:64-S128"
target triple = "x86_64-pc-linux-gnu"

%struct.DdNode = type { i32, i32, ptr, %union.anon, i64 }
%union.anon = type { %struct.DdChildren }
%struct.DdChildren = type { ptr, ptr }

; Function Attrs: nounwind uwtable
define ptr @Cudd_Xgty(ptr noundef %0, i32 noundef %1, ptr noundef %2, ptr noundef %3, ptr noundef %4) #0 {
  %6 = alloca ptr, align 8
  %7 = alloca ptr, align 8
  %8 = alloca i32, align 4
  %9 = alloca ptr, align 8
  %10 = alloca ptr, align 8
  %11 = alloca ptr, align 8
  %12 = alloca ptr, align 8
  %13 = alloca ptr, align 8
  %14 = alloca ptr, align 8
  %15 = alloca i32, align 4
  store ptr %0, ptr %7, align 8
  store i32 %1, ptr %8, align 4
  store ptr %2, ptr %9, align 8
  store ptr %3, ptr %10, align 8
  store ptr %4, ptr %11, align 8
  %16 = load ptr, ptr %7, align 8
  %17 = load ptr, ptr %10, align 8
  %18 = load i32, ptr %8, align 4
  %19 = sub nsw i32 %18, 1
  %20 = sext i32 %19 to i64
  %21 = getelementptr inbounds ptr, ptr %17, i64 %20
  %22 = load ptr, ptr %21, align 8
  %23 = load ptr, ptr %11, align 8
  %24 = load i32, ptr %8, align 4
  %25 = sub nsw i32 %24, 1
  %26 = sext i32 %25 to i64
  %27 = getelementptr inbounds ptr, ptr %23, i64 %26
  %28 = load ptr, ptr %27, align 8
  %29 = ptrtoint ptr %28 to i64
  %30 = xor i64 %29, 1
  %31 = inttoptr i64 %30 to ptr
  %32 = call ptr @Cudd_bddAnd(ptr noundef %16, ptr noundef %22, ptr noundef %31)
  store ptr %32, ptr %12, align 8
  %33 = load ptr, ptr %12, align 8
  %34 = icmp eq ptr %33, null
  br i1 %34, label %35, label %36

35:                                               ; preds = %5
  store ptr null, ptr %6, align 8
  br label %145

36:                                               ; preds = %5
  %37 = load ptr, ptr %12, align 8
  %38 = ptrtoint ptr %37 to i64
  %39 = and i64 %38, -2
  %40 = inttoptr i64 %39 to ptr
  %41 = getelementptr inbounds %struct.DdNode, ptr %40, i32 0, i32 1
  %42 = load i32, ptr %41, align 4
  %43 = add i32 %42, 1
  store i32 %43, ptr %41, align 4
  %44 = load i32, ptr %8, align 4
  %45 = sub nsw i32 %44, 2
  store i32 %45, ptr %15, align 4
  br label %46

46:                                               ; preds = %133, %36
  %47 = load i32, ptr %15, align 4
  %48 = icmp sge i32 %47, 0
  br i1 %48, label %49, label %136

49:                                               ; preds = %46
  %50 = load ptr, ptr %7, align 8
  %51 = load ptr, ptr %11, align 8
  %52 = load i32, ptr %15, align 4
  %53 = sext i32 %52 to i64
  %54 = getelementptr inbounds ptr, ptr %51, i64 %53
  %55 = load ptr, ptr %54, align 8
  %56 = load ptr, ptr %12, align 8
  %57 = ptrtoint ptr %56 to i64
  %58 = xor i64 %57, 1
  %59 = inttoptr i64 %58 to ptr
  %60 = call ptr @Cudd_bddAnd(ptr noundef %50, ptr noundef %55, ptr noundef %59)
  store ptr %60, ptr %13, align 8
  %61 = load ptr, ptr %13, align 8
  %62 = icmp eq ptr %61, null
  br i1 %62, label %63, label %66

63:                                               ; preds = %49
  %64 = load ptr, ptr %7, align 8
  %65 = load ptr, ptr %12, align 8
  call void @Cudd_RecursiveDeref(ptr noundef %64, ptr noundef %65)
  store ptr null, ptr %6, align 8
  br label %145

66:                                               ; preds = %49
  %67 = load ptr, ptr %13, align 8
  %68 = ptrtoint ptr %67 to i64
  %69 = and i64 %68, -2
  %70 = inttoptr i64 %69 to ptr
  %71 = getelementptr inbounds %struct.DdNode, ptr %70, i32 0, i32 1
  %72 = load i32, ptr %71, align 4
  %73 = add i32 %72, 1
  store i32 %73, ptr %71, align 4
  %74 = load ptr, ptr %7, align 8
  %75 = load ptr, ptr %11, align 8
  %76 = load i32, ptr %15, align 4
  %77 = sext i32 %76 to i64
  %78 = getelementptr inbounds ptr, ptr %75, i64 %77
  %79 = load ptr, ptr %78, align 8
  %80 = ptrtoint ptr %79 to i64
  %81 = xor i64 %80, 1
  %82 = inttoptr i64 %81 to ptr
  %83 = load ptr, ptr %12, align 8
  %84 = call ptr @Cudd_bddAnd(ptr noundef %74, ptr noundef %82, ptr noundef %83)
  store ptr %84, ptr %14, align 8
  %85 = load ptr, ptr %14, align 8
  %86 = icmp eq ptr %85, null
  br i1 %86, label %87, label %92

87:                                               ; preds = %66
  %88 = load ptr, ptr %7, align 8
  %89 = load ptr, ptr %12, align 8
  call void @Cudd_RecursiveDeref(ptr noundef %88, ptr noundef %89)
  %90 = load ptr, ptr %7, align 8
  %91 = load ptr, ptr %13, align 8
  call void @Cudd_RecursiveDeref(ptr noundef %90, ptr noundef %91)
  store ptr null, ptr %6, align 8
  br label %145

92:                                               ; preds = %66
  %93 = load ptr, ptr %14, align 8
  %94 = ptrtoint ptr %93 to i64
  %95 = and i64 %94, -2
  %96 = inttoptr i64 %95 to ptr
  %97 = getelementptr inbounds %struct.DdNode, ptr %96, i32 0, i32 1
  %98 = load i32, ptr %97, align 4
  %99 = add i32 %98, 1
  store i32 %99, ptr %97, align 4
  %100 = load ptr, ptr %7, align 8
  %101 = load ptr, ptr %12, align 8
  call void @Cudd_RecursiveDeref(ptr noundef %100, ptr noundef %101)
  %102 = load ptr, ptr %7, align 8
  %103 = load ptr, ptr %10, align 8
  %104 = load i32, ptr %15, align 4
  %105 = sext i32 %104 to i64
  %106 = getelementptr inbounds ptr, ptr %103, i64 %105
  %107 = load ptr, ptr %106, align 8
  %108 = load ptr, ptr %13, align 8
  %109 = ptrtoint ptr %108 to i64
  %110 = xor i64 %109, 1
  %111 = inttoptr i64 %110 to ptr
  %112 = load ptr, ptr %14, align 8
  %113 = call ptr @Cudd_bddIte(ptr noundef %102, ptr noundef %107, ptr noundef %111, ptr noundef %112)
  store ptr %113, ptr %12, align 8
  %114 = load ptr, ptr %12, align 8
  %115 = icmp eq ptr %114, null
  br i1 %115, label %116, label %121

116:                                              ; preds = %92
  %117 = load ptr, ptr %7, align 8
  %118 = load ptr, ptr %13, align 8
  call void @Cudd_RecursiveDeref(ptr noundef %117, ptr noundef %118)
  %119 = load ptr, ptr %7, align 8
  %120 = load ptr, ptr %14, align 8
  call void @Cudd_RecursiveDeref(ptr noundef %119, ptr noundef %120)
  store ptr null, ptr %6, align 8
  br label %145

121:                                              ; preds = %92
  %122 = load ptr, ptr %12, align 8
  %123 = ptrtoint ptr %122 to i64
  %124 = and i64 %123, -2
  %125 = inttoptr i64 %124 to ptr
  %126 = getelementptr inbounds %struct.DdNode, ptr %125, i32 0, i32 1
  %127 = load i32, ptr %126, align 4
  %128 = add i32 %127, 1
  store i32 %128, ptr %126, align 4
  %129 = load ptr, ptr %7, align 8
  %130 = load ptr, ptr %13, align 8
  call void @Cudd_RecursiveDeref(ptr noundef %129, ptr noundef %130)
  %131 = load ptr, ptr %7, align 8
  %132 = load ptr, ptr %14, align 8
  call void @Cudd_RecursiveDeref(ptr noundef %131, ptr noundef %132)
  br label %133

133:                                              ; preds = %121
  %134 = load i32, ptr %15, align 4
  %135 = add nsw i32 %134, -1
  store i32 %135, ptr %15, align 4
  br label %46, !llvm.loop !7

136:                                              ; preds = %46
  %137 = load ptr, ptr %12, align 8
  %138 = ptrtoint ptr %137 to i64
  %139 = and i64 %138, -2
  %140 = inttoptr i64 %139 to ptr
  %141 = getelementptr inbounds %struct.DdNode, ptr %140, i32 0, i32 1
  %142 = load i32, ptr %141, align 4
  %143 = add i32 %142, -1
  store i32 %143, ptr %141, align 4
  %144 = load ptr, ptr %12, align 8
  store ptr %144, ptr %6, align 8
  br label %145

145:                                              ; preds = %136, %116, %87, %63, %35
  %146 = load ptr, ptr %6, align 8
  ret ptr %146
}