; Function Attrs: nounwind uwtable
define ptr @Cudd_Xgty(ptr noundef %0, i32 noundef %1, ptr noundef readnone captures(none) %2, ptr noundef readonly captures(none) %3, ptr noundef readonly captures(none) %4) local_unnamed_addr #0 {
  %6 = add nsw i32 %1, -1
  %7 = sext i32 %6 to i64
  %8 = getelementptr inbounds ptr, ptr %3, i64 %7
  %9 = load ptr, ptr %8, align 8
  %10 = getelementptr inbounds ptr, ptr %4, i64 %7
  %11 = load ptr, ptr %10, align 8
  %12 = ptrtoint ptr %11 to i64
  %13 = xor i64 %12, 1
  %14 = inttoptr i64 %13 to ptr
  %15 = tail call ptr @Cudd_bddAnd(ptr noundef %0, ptr noundef %9, ptr noundef %14) #6
  %16 = icmp eq ptr %15, null
  br i1 %16, label %74, label %17

17:                                               ; preds = %5
  %18 = ptrtoint ptr %15 to i64
  %19 = and i64 %18, -2
  %20 = inttoptr i64 %19 to ptr
  %21 = getelementptr inbounds nuw i8, ptr %20, i64 4
  %22 = load i32, ptr %21, align 4
  %23 = add i32 %22, 1
  store i32 %23, ptr %21, align 4
  %24 = icmp sgt i32 %1, 1
  br i1 %24, label %.lr.ph.preheader, label %._crit_edge

.lr.ph.preheader:                                 ; preds = %17
  %25 = add nsw i32 %1, -2
  %26 = zext nneg i32 %25 to i64
  br label %.lr.ph

.lr.ph:                                           ; preds = %.lr.ph.preheader, %63
  %indvars.iv = phi i64 [ %26, %.lr.ph.preheader ], [ %indvars.iv.next, %63 ]
  %.04860 = phi ptr [ %15, %.lr.ph.preheader ], [ %60, %63 ]
  %27 = getelementptr inbounds nuw ptr, ptr %4, i64 %indvars.iv
  %28 = load ptr, ptr %27, align 8
  %29 = ptrtoint ptr %.04860 to i64
  %30 = xor i64 %29, 1
  %31 = inttoptr i64 %30 to ptr
  %32 = tail call ptr @Cudd_bddAnd(ptr noundef %0, ptr noundef %28, ptr noundef %31) #6
  %33 = icmp eq ptr %32, null
  br i1 %33, label %34, label %35

34:                                               ; preds = %.lr.ph
  tail call void @Cudd_RecursiveDeref(ptr noundef %0, ptr noundef nonnull %.04860) #6
  br label %74

35:                                               ; preds = %.lr.ph
  %36 = ptrtoint ptr %32 to i64
  %37 = and i64 %36, -2
  %38 = inttoptr i64 %37 to ptr
  %39 = getelementptr inbounds nuw i8, ptr %38, i64 4
  %40 = load i32, ptr %39, align 4
  %41 = add i32 %40, 1
  store i32 %41, ptr %39, align 4
  %42 = load ptr, ptr %27, align 8
  %43 = ptrtoint ptr %42 to i64
  %44 = xor i64 %43, 1
  %45 = inttoptr i64 %44 to ptr
  %46 = tail call ptr @Cudd_bddAnd(ptr noundef %0, ptr noundef %45, ptr noundef nonnull %.04860) #6
  %47 = icmp eq ptr %46, null
  br i1 %47, label %48, label %49

48:                                               ; preds = %35
  tail call void @Cudd_RecursiveDeref(ptr noundef %0, ptr noundef nonnull %.04860) #6
  tail call void @Cudd_RecursiveDeref(ptr noundef %0, ptr noundef nonnull %32) #6
  br label %74

49:                                               ; preds = %35
  %50 = ptrtoint ptr %46 to i64
  %51 = and i64 %50, -2
  %52 = inttoptr i64 %51 to ptr
  %53 = getelementptr inbounds nuw i8, ptr %52, i64 4
  %54 = load i32, ptr %53, align 4
  %55 = add i32 %54, 1
  store i32 %55, ptr %53, align 4
  tail call void @Cudd_RecursiveDeref(ptr noundef %0, ptr noundef nonnull %.04860) #6
  %56 = getelementptr inbounds nuw ptr, ptr %3, i64 %indvars.iv
  %57 = load ptr, ptr %56, align 8
  %58 = xor i64 %36, 1
  %59 = inttoptr i64 %58 to ptr
  %60 = tail call ptr @Cudd_bddIte(ptr noundef %0, ptr noundef %57, ptr noundef %59, ptr noundef nonnull %46) #6
  %61 = icmp eq ptr %60, null
  br i1 %61, label %62, label %63

62:                                               ; preds = %49
  tail call void @Cudd_RecursiveDeref(ptr noundef %0, ptr noundef nonnull %32) #6
  tail call void @Cudd_RecursiveDeref(ptr noundef %0, ptr noundef nonnull %46) #6
  br label %74

63:                                               ; preds = %49
  %64 = ptrtoint ptr %60 to i64
  %65 = and i64 %64, -2
  %66 = inttoptr i64 %65 to ptr
  %67 = getelementptr inbounds nuw i8, ptr %66, i64 4
  %68 = load i32, ptr %67, align 4
  %69 = add i32 %68, 1
  store i32 %69, ptr %67, align 4
  tail call void @Cudd_RecursiveDeref(ptr noundef %0, ptr noundef nonnull %32) #6
  tail call void @Cudd_RecursiveDeref(ptr noundef %0, ptr noundef nonnull %46) #6
  %indvars.iv.next = add nsw i64 %indvars.iv, -1
  %70 = icmp sgt i64 %indvars.iv, 0
  br i1 %70, label %.lr.ph, label %._crit_edge, !llvm.loop !7

._crit_edge:                                      ; preds = %63, %17
  %.pre-phi75 = phi ptr [ %20, %17 ], [ %66, %63 ]
  %.048.lcssa = phi ptr [ %15, %17 ], [ %60, %63 ]
  %71 = getelementptr inbounds nuw i8, ptr %.pre-phi75, i64 4
  %72 = load i32, ptr %71, align 4
  %73 = add i32 %72, -1
  store i32 %73, ptr %71, align 4
  br label %74

74:                                               ; preds = %5, %._crit_edge, %62, %48, %34
  %.047 = phi ptr [ null, %34 ], [ null, %48 ], [ null, %62 ], [ %.048.lcssa, %._crit_edge ], [ null, %5 ]
  ret ptr %.047
}